; ModuleID = 'source-C-CXX/25/132.cpp'
source_filename = "source-C-CXX/25/132.cpp"
target datalayout = "e-m:e-p270:32:32-p271:32:32-p272:64:64-i64:64-f80:128-n8:16:32:64-S128"
target triple = "x86_64-pc-linux-gnu"

%"class.std::ios_base::Init" = type { i8 }
%"class.std::basic_istream" = type { i32 (...)**, i64, %"class.std::basic_ios" }
%"class.std::basic_ios" = type { %"class.std::ios_base", %"class.std::basic_ostream"*, i8, i8, %"class.std::basic_streambuf"*, %"class.std::ctype"*, %"class.std::num_put"*, %"class.std::num_get"* }
%"class.std::ios_base" = type { i32 (...)**, i64, i64, i32, i32, i32, %"struct.std::ios_base::_Callback_list"*, %"struct.std::ios_base::_Words", [8 x %"struct.std::ios_base::_Words"], i32, %"struct.std::ios_base::_Words"*, %"class.std::locale" }
%"struct.std::ios_base::_Callback_list" = type { %"struct.std::ios_base::_Callback_list"*, void (i32, %"class.std::ios_base"*, i32)*, i32, i32 }
%"struct.std::ios_base::_Words" = type { i8*, i64 }
%"class.std::locale" = type { %"class.std::locale::_Impl"* }
%"class.std::locale::_Impl" = type { i32, %"class.std::locale::facet"**, i64, %"class.std::locale::facet"**, i8** }
%"class.std::locale::facet" = type <{ i32 (...)**, i32, [4 x i8] }>
%"class.std::basic_ostream" = type { i32 (...)**, %"class.std::basic_ios" }
%"class.std::basic_streambuf" = type { i32 (...)**, i8*, i8*, i8*, i8*, i8*, i8*, %"class.std::locale" }
%"class.std::ctype" = type <{ %"class.std::locale::facet.base", [4 x i8], %struct.__locale_struct*, i8, [7 x i8], i32*, i32*, i16*, i8, [256 x i8], [256 x i8], i8, [6 x i8] }>
%"class.std::locale::facet.base" = type <{ i32 (...)**, i32 }>
%struct.__locale_struct = type { [13 x %struct.__locale_data*], i16*, i32*, i32*, [13 x i8*] }
%struct.__locale_data = type opaque
%"class.std::num_put" = type { %"class.std::locale::facet.base", [4 x i8] }
%"class.std::num_get" = type { %"class.std::locale::facet.base", [4 x i8] }

@_ZStL8__ioinit = internal global %"class.std::ios_base::Init" zeroinitializer, align 1
@__dso_handle = external hidden global i8
@_ZSt3cin = external global %"class.std::basic_istream", align 8
@_ZSt4cout = external global %"class.std::basic_ostream", align 8
@llvm.global_ctors = appending global [1 x { i32, void ()*, i8* }] [{ i32, void ()*, i8* } { i32 65535, void ()* @_GLOBAL__sub_I_132.cpp, i8* null }]

declare void @_ZNSt8ios_base4InitC1Ev(%"class.std::ios_base::Init"* nonnull align 1 dereferenceable(1)) unnamed_addr #0

; Function Attrs: nounwind
declare void @_ZNSt8ios_base4InitD1Ev(%"class.std::ios_base::Init"* nonnull align 1 dereferenceable(1)) unnamed_addr #1

; Function Attrs: nofree nounwind
declare i32 @__cxa_atexit(void (i8*)*, i8*, i8*) local_unnamed_addr #2

; Function Attrs: mustprogress norecurse sspstrong uwtable
define dso_local i32 @main() local_unnamed_addr #3 {
  %1 = alloca i8, align 1
  %2 = alloca [100 x i8], align 16
  %3 = getelementptr inbounds [100 x i8], [100 x i8]* %2, i64 0, i64 0
  %4 = getelementptr inbounds [100 x i8], [100 x i8]* %2, i64 0, i64 0
  call void @llvm.lifetime.start.p0i8(i64 100, i8* nonnull %4) #8
  call void @llvm.memset.p0i8.i64(i8* noundef nonnull align 16 dereferenceable(100) %3, i8 0, i64 100, i1 false)
  %5 = load i8*, i8** bitcast (%"class.std::basic_istream"* @_ZSt3cin to i8**), align 8, !tbaa !5
  %6 = getelementptr i8, i8* %5, i64 -24
  %7 = bitcast i8* %6 to i64*
  %8 = load i64, i64* %7, align 8
  %9 = add nsw i64 %8, 240
  %10 = getelementptr inbounds i8, i8* bitcast (%"class.std::basic_istream"* @_ZSt3cin to i8*), i64 %9
  %11 = bitcast i8* %10 to %"class.std::ctype"**
  %12 = load %"class.std::ctype"*, %"class.std::ctype"** %11, align 8, !tbaa !8
  %13 = icmp eq %"class.std::ctype"* %12, null
  br i1 %13, label %14, label %15

14:                                               ; preds = %0
  tail call void @_ZSt16__throw_bad_castv() #9
  unreachable

15:                                               ; preds = %0
  %16 = getelementptr inbounds %"class.std::ctype", %"class.std::ctype"* %12, i64 0, i32 8
  %17 = load i8, i8* %16, align 8, !tbaa !13
  %18 = icmp eq i8 %17, 0
  br i1 %18, label %22, label %19

19:                                               ; preds = %15
  %20 = getelementptr inbounds %"class.std::ctype", %"class.std::ctype"* %12, i64 0, i32 9, i64 10
  %21 = load i8, i8* %20, align 1, !tbaa !15
  br label %28

22:                                               ; preds = %15
  tail call void @_ZNKSt5ctypeIcE13_M_widen_initEv(%"class.std::ctype"* nonnull align 8 dereferenceable(570) %12)
  %23 = bitcast %"class.std::ctype"* %12 to i8 (%"class.std::ctype"*, i8)***
  %24 = load i8 (%"class.std::ctype"*, i8)**, i8 (%"class.std::ctype"*, i8)*** %23, align 8, !tbaa !5
  %25 = getelementptr inbounds i8 (%"class.std::ctype"*, i8)*, i8 (%"class.std::ctype"*, i8)** %24, i64 6
  %26 = load i8 (%"class.std::ctype"*, i8)*, i8 (%"class.std::ctype"*, i8)** %25, align 8
  %27 = tail call signext i8 %26(%"class.std::ctype"* nonnull align 8 dereferenceable(570) %12, i8 signext 10)
  br label %28

28:                                               ; preds = %19, %22
  %29 = phi i8 [ %21, %19 ], [ %27, %22 ]
  %30 = call nonnull align 8 dereferenceable(16) %"class.std::basic_istream"* @_ZNSi3getEPclc(%"class.std::basic_istream"* nonnull align 8 dereferenceable(16) @_ZSt3cin, i8* nonnull %4, i64 100, i8 signext %29)
  br label %31

31:                                               ; preds = %28, %140
  %32 = phi i64 [ 0, %28 ], [ %141, %140 ]
  %33 = getelementptr inbounds [100 x i8], [100 x i8]* %2, i64 0, i64 %32
  %34 = load i8, i8* %33, align 1, !tbaa !15
  switch i8 %34, label %35 [
    i8 0, label %143
    i8 32, label %37
  ]

35:                                               ; preds = %31
  %36 = add nuw nsw i64 %32, 1
  br label %140

37:                                               ; preds = %31
  %38 = trunc i64 %32 to i32
  %39 = add nuw nsw i64 %32, 1
  %40 = getelementptr inbounds [100 x i8], [100 x i8]* %2, i64 0, i64 %39
  %41 = sub i64 100, %32
  %42 = sub i64 68, %32
  %43 = lshr i64 %42, 5
  %44 = add nuw nsw i64 %43, 1
  %45 = icmp ult i64 %41, 8
  %46 = icmp ult i64 %41, 32
  %47 = and i64 %41, -32
  %48 = and i64 %44, 1
  %49 = icmp ult i64 %42, 32
  %50 = and i64 %44, 1152921504606846974
  %51 = icmp eq i64 %48, 0
  %52 = icmp eq i64 %41, %47
  %53 = add i64 %32, %47
  %54 = and i64 %41, 24
  %55 = icmp eq i64 %54, 0
  %56 = and i64 %41, -8
  %57 = add i64 %32, %56
  %58 = icmp eq i64 %41, %56
  br label %59

59:                                               ; preds = %37, %137
  %60 = phi i32 [ %138, %137 ], [ %38, %37 ]
  %61 = load i8, i8* %40, align 1, !tbaa !15
  %62 = icmp eq i8 %61, 32
  br i1 %62, label %63, label %140

63:                                               ; preds = %59
  br i1 %45, label %128, label %64

64:                                               ; preds = %63
  br i1 %46, label %114, label %65

65:                                               ; preds = %64
  br i1 %49, label %97, label %66

66:                                               ; preds = %65, %66
  %67 = phi i64 [ %94, %66 ], [ 0, %65 ]
  %68 = phi i64 [ %95, %66 ], [ %50, %65 ]
  %69 = add i64 %32, %67
  %70 = add nuw nsw i64 %69, 1
  %71 = getelementptr inbounds [100 x i8], [100 x i8]* %2, i64 0, i64 %70
  %72 = bitcast i8* %71 to <16 x i8>*
  %73 = load <16 x i8>, <16 x i8>* %72, align 1, !tbaa !15
  %74 = getelementptr inbounds i8, i8* %71, i64 16
  %75 = bitcast i8* %74 to <16 x i8>*
  %76 = load <16 x i8>, <16 x i8>* %75, align 1, !tbaa !15
  %77 = getelementptr inbounds [100 x i8], [100 x i8]* %2, i64 0, i64 %69
  %78 = bitcast i8* %77 to <16 x i8>*
  store <16 x i8> %73, <16 x i8>* %78, align 1, !tbaa !15
  %79 = getelementptr inbounds i8, i8* %77, i64 16
  %80 = bitcast i8* %79 to <16 x i8>*
  store <16 x i8> %76, <16 x i8>* %80, align 1, !tbaa !15
  %81 = or i64 %67, 32
  %82 = add i64 %32, %81
  %83 = add nuw nsw i64 %82, 1
  %84 = getelementptr inbounds [100 x i8], [100 x i8]* %2, i64 0, i64 %83
  %85 = bitcast i8* %84 to <16 x i8>*
  %86 = load <16 x i8>, <16 x i8>* %85, align 1, !tbaa !15
  %87 = getelementptr inbounds i8, i8* %84, i64 16
  %88 = bitcast i8* %87 to <16 x i8>*
  %89 = load <16 x i8>, <16 x i8>* %88, align 1, !tbaa !15
  %90 = getelementptr inbounds [100 x i8], [100 x i8]* %2, i64 0, i64 %82
  %91 = bitcast i8* %90 to <16 x i8>*
  store <16 x i8> %86, <16 x i8>* %91, align 1, !tbaa !15
  %92 = getelementptr inbounds i8, i8* %90, i64 16
  %93 = bitcast i8* %92 to <16 x i8>*
  store <16 x i8> %89, <16 x i8>* %93, align 1, !tbaa !15
  %94 = add nuw i64 %67, 64
  %95 = add i64 %68, -2
  %96 = icmp eq i64 %95, 0
  br i1 %96, label %97, label %66, !llvm.loop !16

97:                                               ; preds = %66, %65
  %98 = phi i64 [ 0, %65 ], [ %94, %66 ]
  br i1 %51, label %112, label %99

99:                                               ; preds = %97
  %100 = add i64 %32, %98
  %101 = add nuw nsw i64 %100, 1
  %102 = getelementptr inbounds [100 x i8], [100 x i8]* %2, i64 0, i64 %101
  %103 = bitcast i8* %102 to <16 x i8>*
  %104 = load <16 x i8>, <16 x i8>* %103, align 1, !tbaa !15
  %105 = getelementptr inbounds i8, i8* %102, i64 16
  %106 = bitcast i8* %105 to <16 x i8>*
  %107 = load <16 x i8>, <16 x i8>* %106, align 1, !tbaa !15
  %108 = getelementptr inbounds [100 x i8], [100 x i8]* %2, i64 0, i64 %100
  %109 = bitcast i8* %108 to <16 x i8>*
  store <16 x i8> %104, <16 x i8>* %109, align 1, !tbaa !15
  %110 = getelementptr inbounds i8, i8* %108, i64 16
  %111 = bitcast i8* %110 to <16 x i8>*
  store <16 x i8> %107, <16 x i8>* %111, align 1, !tbaa !15
  br label %112

112:                                              ; preds = %97, %99
  br i1 %52, label %137, label %113

113:                                              ; preds = %112
  br i1 %55, label %128, label %114

114:                                              ; preds = %64, %113
  %115 = phi i64 [ %47, %113 ], [ 0, %64 ]
  br label %116

116:                                              ; preds = %116, %114
  %117 = phi i64 [ %115, %114 ], [ %125, %116 ]
  %118 = add i64 %32, %117
  %119 = add nuw nsw i64 %118, 1
  %120 = getelementptr inbounds [100 x i8], [100 x i8]* %2, i64 0, i64 %119
  %121 = bitcast i8* %120 to <8 x i8>*
  %122 = load <8 x i8>, <8 x i8>* %121, align 1, !tbaa !15
  %123 = getelementptr inbounds [100 x i8], [100 x i8]* %2, i64 0, i64 %118
  %124 = bitcast i8* %123 to <8 x i8>*
  store <8 x i8> %122, <8 x i8>* %124, align 1, !tbaa !15
  %125 = add nuw i64 %117, 8
  %126 = icmp eq i64 %125, %56
  br i1 %126, label %127, label %116, !llvm.loop !19

127:                                              ; preds = %116
  br i1 %58, label %137, label %128

128:                                              ; preds = %63, %113, %127
  %129 = phi i64 [ %32, %63 ], [ %53, %113 ], [ %57, %127 ]
  br label %130

130:                                              ; preds = %128, %130
  %131 = phi i64 [ %132, %130 ], [ %129, %128 ]
  %132 = add nuw nsw i64 %131, 1
  %133 = getelementptr inbounds [100 x i8], [100 x i8]* %2, i64 0, i64 %132
  %134 = load i8, i8* %133, align 1, !tbaa !15
  %135 = getelementptr inbounds [100 x i8], [100 x i8]* %2, i64 0, i64 %131
  store i8 %134, i8* %135, align 1, !tbaa !15
  %136 = icmp eq i64 %132, 100
  br i1 %136, label %137, label %130, !llvm.loop !20

137:                                              ; preds = %130, %127, %112
  %138 = add nuw nsw i32 %60, 1
  %139 = icmp eq i32 %138, 100
  br i1 %139, label %140, label %59, !llvm.loop !22

140:                                              ; preds = %59, %137, %35
  %141 = phi i64 [ %36, %35 ], [ %39, %137 ], [ %39, %59 ]
  %142 = icmp eq i64 %141, 100
  br i1 %142, label %148, label %31, !llvm.loop !23

143:                                              ; preds = %31
  %144 = trunc i64 %32 to i32
  %145 = icmp eq i32 %144, 0
  br i1 %145, label %148, label %146

146:                                              ; preds = %143
  %147 = and i64 %32, 4294967295
  br label %149

148:                                              ; preds = %140, %149, %143
  call void @llvm.lifetime.end.p0i8(i64 100, i8* nonnull %4) #8
  ret i32 0

149:                                              ; preds = %146, %149
  %150 = phi i64 [ 0, %146 ], [ %154, %149 ]
  %151 = getelementptr inbounds [100 x i8], [100 x i8]* %2, i64 0, i64 %150
  %152 = load i8, i8* %151, align 1, !tbaa !15
  call void @llvm.lifetime.start.p0i8(i64 1, i8* nonnull %1)
  store i8 %152, i8* %1, align 1, !tbaa !15
  %153 = call nonnull align 8 dereferenceable(8) %"class.std::basic_ostream"* @_ZSt16__ostream_insertIcSt11char_traitsIcEERSt13basic_ostreamIT_T0_ES6_PKS3_l(%"class.std::basic_ostream"* nonnull align 8 dereferenceable(8) @_ZSt4cout, i8* nonnull %1, i64 1)
  call void @llvm.lifetime.end.p0i8(i64 1, i8* nonnull %1)
  %154 = add nuw nsw i64 %150, 1
  %155 = icmp eq i64 %154, %147
  br i1 %155, label %148, label %149, !llvm.loop !24
}

; Function Attrs: argmemonly mustprogress nofree nosync nounwind willreturn
declare void @llvm.lifetime.start.p0i8(i64 immarg, i8* nocapture) #4

; Function Attrs: argmemonly mustprogress nofree nosync nounwind willreturn
declare void @llvm.lifetime.end.p0i8(i64 immarg, i8* nocapture) #4

declare nonnull align 8 dereferenceable(16) %"class.std::basic_istream"* @_ZNSi3getEPclc(%"class.std::basic_istream"* nonnull align 8 dereferenceable(16), i8*, i64, i8 signext) local_unnamed_addr #0

; Function Attrs: noreturn
declare void @_ZSt16__throw_bad_castv() local_unnamed_addr #5

declare void @_ZNKSt5ctypeIcE13_M_widen_initEv(%"class.std::ctype"* nonnull align 8 dereferenceable(570)) local_unnamed_addr #0

declare nonnull align 8 dereferenceable(8) %"class.std::basic_ostream"* @_ZSt16__ostream_insertIcSt11char_traitsIcEERSt13basic_ostreamIT_T0_ES6_PKS3_l(%"class.std::basic_ostream"* nonnull align 8 dereferenceable(8), i8*, i64) local_unnamed_addr #0

; Function Attrs: sspstrong uwtable
define internal void @_GLOBAL__sub_I_132.cpp() #6 section ".text.startup" {
  tail call void @_ZNSt8ios_base4InitC1Ev(%"class.std::ios_base::Init"* nonnull align 1 dereferenceable(1) @_ZStL8__ioinit)
  %1 = tail call i32 @__cxa_atexit(void (i8*)* bitcast (void (%"class.std::ios_base::Init"*)* @_ZNSt8ios_base4InitD1Ev to void (i8*)*), i8* getelementptr inbounds (%"class.std::ios_base::Init", %"class.std::ios_base::Init"* @_ZStL8__ioinit, i64 0, i32 0), i8* nonnull @__dso_handle) #8
  ret void
}

; Function Attrs: argmemonly nofree nounwind willreturn writeonly
declare void @llvm.memset.p0i8.i64(i8* nocapture writeonly, i8, i64, i1 immarg) #7


!llvm.module.flags = !{!0, !1, !2, !3}
!llvm.ident = !{!4}

!0 = !{i32 1, !"wchar_size", i32 4}
!1 = !{i32 7, !"PIC Level", i32 2}
!2 = !{i32 7, !"PIE Level", i32 2}
!3 = !{i32 7, !"uwtable", i32 1}
!4 = !{!"clang version 13.0.0"}
!5 = !{!6, !6, i64 0}
!6 = !{!"vtable pointer", !7, i64 0}
!7 = !{!"Simple C++ TBAA"}
!8 = !{!9, !10, i64 240}
!9 = !{!"_ZTSSt9basic_iosIcSt11char_traitsIcEE", !10, i64 216, !11, i64 224, !12, i64 225, !10, i64 232, !10, i64 240, !10, i64 248, !10, i64 256}
!10 = !{!"any pointer", !11, i64 0}
!11 = !{!"omnipotent char", !7, i64 0}
!12 = !{!"bool", !11, i64 0}
!13 = !{!14, !11, i64 56}
!14 = !{!"_ZTSSt5ctypeIcE", !10, i64 16, !12, i64 24, !10, i64 32, !10, i64 40, !10, i64 48, !11, i64 56, !11, i64 57, !11, i64 313, !11, i64 569}
!15 = !{!11, !11, i64 0}
!16 = distinct !{!16, !17, !18}
!17 = !{!"llvm.loop.mustprogress"}
!18 = !{!"llvm.loop.isvectorized", i32 1}
!19 = distinct !{!19, !17, !18}
!20 = distinct !{!20, !17, !21, !18}
!21 = !{!"llvm.loop.unroll.runtime.disable"}
!22 = distinct !{!22, !17}
!23 = distinct !{!23, !17}
!24 = distinct !{!24, !17}
